; Function Attrs: mustprogress uwtable
define hidden void @_ZN4cvc58internal5proof11LfscPrinter13printInternalERSoNS0_12NodeTemplateILb1EEERNS0_10LetBindingEb(ptr nonnull readnone align 8 captures(none) %0, ptr noundef nonnull align 8 dereferenceable(8) %1, ptr noundef readonly captures(none) %2, ptr noundef nonnull align 8 dereferenceable(472) %3, i1 noundef zeroext %4) local_unnamed_addr #3 align 2 personality ptr @__gxx_personality_v0 {
  %6 = alloca %"class.cvc5::internal::NodeTemplate", align 8
  %7 = alloca %"class.cvc5::internal::NodeTemplate", align 8
  %8 = alloca %"class.cvc5::internal::NodeTemplate", align 8
  call void @llvm.lifetime.start.p0(i64 8, ptr nonnull %6) #23
  %9 = load ptr, ptr %2, align 8, !tbaa !13
  store ptr %9, ptr %7, align 8, !tbaa !13
  %10 = load i64, ptr %9, align 8
  %11 = lshr i64 %10, 40
  %12 = trunc nuw nsw i64 %11 to i32
  %13 = and i32 %12, 1048575
  %14 = icmp samesign ult i32 %13, 1048574
  br i1 %14, label %15, label %20, !prof !56

15:                                               ; preds = %5
  %16 = add i64 %10, 1099511627776
  %17 = and i64 %16, 1152920405095219200
  %18 = and i64 %10, -1152920405095219201
  %19 = or disjoint i64 %17, %18
  store i64 %19, ptr %9, align 8
  br label %_ZN4cvc58internal12NodeTemplateILb1EEC2ERKS2_.exit

20:                                               ; preds = %5
  %21 = icmp eq i32 %13, 1048574
  br i1 %21, label %22, label %_ZN4cvc58internal12NodeTemplateILb1EEC2ERKS2_.exit, !prof !55

22:                                               ; preds = %20
  %23 = or i64 %10, 1152920405095219200
  store i64 %23, ptr %9, align 8
  tail call void @_ZN4cvc58internal4expr9NodeValue20markRefCountMaxedOutEv(ptr noundef nonnull align 8 dereferenceable(24) %9)
  br label %_ZN4cvc58internal12NodeTemplateILb1EEC2ERKS2_.exit

_ZN4cvc58internal12NodeTemplateILb1EEC2ERKS2_.exit: ; preds = %15, %20, %22
  invoke void @_ZNK4cvc58internal10LetBinding7convertENS0_12NodeTemplateILb1EEEb(ptr dead_on_unwind nonnull writable sret(%"class.cvc5::internal::NodeTemplate") align 8 %6, ptr noundef nonnull align 8 dereferenceable(472) %3, ptr noundef nonnull %7, i1 noundef zeroext %4)
          to label %24 unwind label %80

24:                                               ; preds = %_ZN4cvc58internal12NodeTemplateILb1EEC2ERKS2_.exit
  %25 = load ptr, ptr %7, align 8, !tbaa !13
  %26 = load i64, ptr %25, align 8
  %27 = and i64 %26, 1152920405095219200
  %.not.i.i = icmp eq i64 %27, 1152920405095219200
  br i1 %.not.i.i, label %_ZN4cvc58internal12NodeTemplateILb1EED2Ev.exit, label %28, !prof !55

28:                                               ; preds = %24
  %29 = add i64 %26, 1152920405095219200
  %30 = and i64 %29, 1152920405095219200
  %31 = and i64 %26, -1152920405095219201
  %32 = or disjoint i64 %30, %31
  store i64 %32, ptr %25, align 8
  %33 = icmp eq i64 %30, 0
  br i1 %33, label %34, label %_ZN4cvc58internal12NodeTemplateILb1EED2Ev.exit, !prof !55

34:                                               ; preds = %28
  invoke void @_ZN4cvc58internal4expr9NodeValue15markForDeletionEv(ptr noundef nonnull align 8 dereferenceable(24) %25)
          to label %_ZN4cvc58internal12NodeTemplateILb1EED2Ev.exit unwind label %35

35:                                               ; preds = %34
  %36 = landingpad { ptr, i32 }
          catch ptr null
  %37 = extractvalue { ptr, i32 } %36, 0
  call void @__clang_call_terminate(ptr %37) #25
  unreachable

_ZN4cvc58internal12NodeTemplateILb1EED2Ev.exit:   ; preds = %24, %28, %34
  %38 = load ptr, ptr %6, align 8, !tbaa !13
  store ptr %38, ptr %8, align 8, !tbaa !13
  %39 = load i64, ptr %38, align 8
  %40 = lshr i64 %39, 40
  %41 = trunc nuw nsw i64 %40 to i32
  %42 = and i32 %41, 1048575
  %43 = icmp samesign ult i32 %42, 1048574
  br i1 %43, label %44, label %49, !prof !56

44:                                               ; preds = %_ZN4cvc58internal12NodeTemplateILb1EED2Ev.exit
  %45 = add i64 %39, 1099511627776
  %46 = and i64 %45, 1152920405095219200
  %47 = and i64 %39, -1152920405095219201
  %48 = or disjoint i64 %46, %47
  store i64 %48, ptr %38, align 8
  br label %_ZN4cvc58internal12NodeTemplateILb1EEC2ERKS2_.exit8

49:                                               ; preds = %_ZN4cvc58internal12NodeTemplateILb1EED2Ev.exit
  %50 = icmp eq i32 %42, 1048574
  br i1 %50, label %51, label %_ZN4cvc58internal12NodeTemplateILb1EEC2ERKS2_.exit8, !prof !55

51:                                               ; preds = %49
  %52 = or i64 %39, 1152920405095219200
  store i64 %52, ptr %38, align 8
  invoke void @_ZN4cvc58internal4expr9NodeValue20markRefCountMaxedOutEv(ptr noundef nonnull align 8 dereferenceable(24) %38)
          to label %_ZN4cvc58internal12NodeTemplateILb1EEC2ERKS2_.exit8 unwind label %82

_ZN4cvc58internal12NodeTemplateILb1EEC2ERKS2_.exit8: ; preds = %49, %44, %51
  invoke void @_ZN4cvc58internal5proof19LfscPrintChannelOut17printNodeInternalERSoNS0_12NodeTemplateILb1EEE(ptr noundef nonnull align 8 dereferenceable(8) %1, ptr noundef nonnull %8)
          to label %53 unwind label %84

53:                                               ; preds = %_ZN4cvc58internal12NodeTemplateILb1EEC2ERKS2_.exit8
  %54 = load ptr, ptr %8, align 8, !tbaa !13
  %55 = load i64, ptr %54, align 8
  %56 = and i64 %55, 1152920405095219200
  %.not.i.i9 = icmp eq i64 %56, 1152920405095219200
  br i1 %.not.i.i9, label %_ZN4cvc58internal12NodeTemplateILb1EED2Ev.exit10, label %57, !prof !55

57:                                               ; preds = %53
  %58 = add i64 %55, 1152920405095219200
  %59 = and i64 %58, 1152920405095219200
  %60 = and i64 %55, -1152920405095219201
  %61 = or disjoint i64 %59, %60
  store i64 %61, ptr %54, align 8
  %62 = icmp eq i64 %59, 0
  br i1 %62, label %63, label %_ZN4cvc58internal12NodeTemplateILb1EED2Ev.exit10, !prof !55

63:                                               ; preds = %57
  invoke void @_ZN4cvc58internal4expr9NodeValue15markForDeletionEv(ptr noundef nonnull align 8 dereferenceable(24) %54)
          to label %_ZN4cvc58internal12NodeTemplateILb1EED2Ev.exit10 unwind label %64

64:                                               ; preds = %63
  %65 = landingpad { ptr, i32 }
          catch ptr null
  %66 = extractvalue { ptr, i32 } %65, 0
  call void @__clang_call_terminate(ptr %66) #25
  unreachable

_ZN4cvc58internal12NodeTemplateILb1EED2Ev.exit10: ; preds = %53, %57, %63
  %67 = load ptr, ptr %6, align 8, !tbaa !13
  %68 = load i64, ptr %67, align 8
  %69 = and i64 %68, 1152920405095219200
  %.not.i.i11 = icmp eq i64 %69, 1152920405095219200
  br i1 %.not.i.i11, label %_ZN4cvc58internal12NodeTemplateILb1EED2Ev.exit12, label %70, !prof !55

70:                                               ; preds = %_ZN4cvc58internal12NodeTemplateILb1EED2Ev.exit10
  %71 = add i64 %68, 1152920405095219200
  %72 = and i64 %71, 1152920405095219200
  %73 = and i64 %68, -1152920405095219201
  %74 = or disjoint i64 %72, %73
  store i64 %74, ptr %67, align 8
  %75 = icmp eq i64 %72, 0
  br i1 %75, label %76, label %_ZN4cvc58internal12NodeTemplateILb1EED2Ev.exit12, !prof !55

76:                                               ; preds = %70
  invoke void @_ZN4cvc58internal4expr9NodeValue15markForDeletionEv(ptr noundef nonnull align 8 dereferenceable(24) %67)
          to label %_ZN4cvc58internal12NodeTemplateILb1EED2Ev.exit12 unwind label %77

77:                                               ; preds = %76
  %78 = landingpad { ptr, i32 }
          catch ptr null
  %79 = extractvalue { ptr, i32 } %78, 0
  call void @__clang_call_terminate(ptr %79) #25
  unreachable

_ZN4cvc58internal12NodeTemplateILb1EED2Ev.exit12: ; preds = %_ZN4cvc58internal12NodeTemplateILb1EED2Ev.exit10, %70, %76
  call void @llvm.lifetime.end.p0(i64 8, ptr nonnull %6) #23
  ret void

80:                                               ; preds = %_ZN4cvc58internal12NodeTemplateILb1EEC2ERKS2_.exit
  %81 = landingpad { ptr, i32 }
          cleanup
  br label %86

82:                                               ; preds = %51
  %83 = landingpad { ptr, i32 }
          cleanup
  br label %86

84:                                               ; preds = %_ZN4cvc58internal12NodeTemplateILb1EEC2ERKS2_.exit8
  %85 = landingpad { ptr, i32 }
          cleanup
  call void @_ZN4cvc58internal12NodeTemplateILb1EED2Ev(ptr noundef nonnull align 8 dereferenceable(8) %8) #23
  br label %86

86:                                               ; preds = %82, %84, %80
  %.sink = phi ptr [ %7, %80 ], [ %6, %84 ], [ %6, %82 ]
  %.pn.pn = phi { ptr, i32 } [ %81, %80 ], [ %85, %84 ], [ %83, %82 ]
  call void @_ZN4cvc58internal12NodeTemplateILb1EED2Ev(ptr noundef nonnull align 8 dereferenceable(8) %.sink) #23
  call void @llvm.lifetime.end.p0(i64 8, ptr nonnull %6) #23
  resume { ptr, i32 } %.pn.pn
}